target datalayout = "e-m:e-p270:32:32-p271:32:32-p272:64:64-i64:64-i128:128-f80:128-n8:16:32:64-S128"
target triple = "x86_64-pc-linux-gnu"

%struct.AVProbeData = type { ptr, ptr, i32, ptr }

; Function Attrs: nounwind uwtable
define internal i32 @spdif_probe(ptr noundef %0) #0 {
  %2 = alloca ptr, align 8
  %3 = alloca i32, align 4
  store ptr %0, ptr %2, align 8, !tbaa !72
  call void @llvm.lifetime.start.p0(i64 4, ptr %3) #4
  %4 = load ptr, ptr %2, align 8, !tbaa !72
  %5 = getelementptr inbounds nuw %struct.AVProbeData, ptr %4, i32 0, i32 1
  %6 = load ptr, ptr %5, align 8, !tbaa !74
  %7 = load ptr, ptr %2, align 8, !tbaa !72
  %8 = getelementptr inbounds nuw %struct.AVProbeData, ptr %7, i32 0, i32 2
  %9 = load i32, ptr %8, align 8, !tbaa !75
  %10 = call i32 @ff_spdif_probe(ptr noundef %6, i32 noundef %9, ptr noundef %3)
  call void @llvm.lifetime.end.p0(i64 4, ptr %3) #4
  ret i32 %10
}