; Function Attrs: nounwind uwtable
define internal range(i32 0, 101) i32 @spdif_probe(ptr noundef readonly captures(none) %0) #0 {
  %2 = alloca i32, align 4
  call void @llvm.lifetime.start.p0(i64 4, ptr nonnull %2) #5
  %3 = getelementptr inbounds nuw i8, ptr %0, i64 8
  %4 = load ptr, ptr %3, align 8, !tbaa !62
  %5 = getelementptr inbounds nuw i8, ptr %0, i64 16
  %6 = load i32, ptr %5, align 8, !tbaa !63
  %7 = call i32 @ff_spdif_probe(ptr noundef %4, i32 noundef %6, ptr noundef nonnull %2)
  call void @llvm.lifetime.end.p0(i64 4, ptr nonnull %2) #5
  ret i32 %7
}